target datalayout = "e-m:e-p270:32:32-p271:32:32-p272:64:64-i64:64-i128:128-f80:128-n8:16:32:64-S128"
target triple = "x86_64-unknown-linux-gnu"

%struct.TPMPassthruState = type { %struct.TPMBackend, ptr, ptr, i32, i8, i8, i32, i32, i64 }
%struct.TPMBackend = type { %struct.Object, ptr, i8, i8, ptr, ptr, %struct.anon }
%struct.Object = type { ptr, ptr, ptr, i32, ptr }
%struct.anon = type { ptr, ptr }

@.str = private unnamed_addr constant [16 x i8] c"tpm-passthrough\00", align 1
@.str.2 = private unnamed_addr constant [39 x i8] c"../qemu/backends/tpm/tpm_passthrough.c\00", align 1
@__func__.TPM_PASSTHROUGH = private unnamed_addr constant [16 x i8] c"TPM_PASSTHROUGH\00", align 1
@.str.22 = private unnamed_addr constant [81 x i8] c"Requested buffer size of %zu is smaller than host TPM's fixed buffer size of %zu\00", align 1

; Function Attrs: nounwind sspstrong uwtable
define internal ptr @TPM_PASSTHROUGH(ptr noundef %obj) #0 {
entry:
  %obj.addr = alloca ptr, align 8
  store ptr %obj, ptr %obj.addr, align 8
  %0 = load ptr, ptr %obj.addr, align 8
  %call = call ptr @object_dynamic_cast_assert(ptr noundef %0, ptr noundef @.str, ptr noundef @.str.2, i32 noundef 38, ptr noundef @__func__.TPM_PASSTHROUGH)
  ret ptr %call
}

; Function Attrs: nounwind sspstrong uwtable
define internal i32 @tpm_passthrough_startup_tpm(ptr noundef %tb, i64 noundef %buffersize) #0 {
entry:
  %retval = alloca i32, align 4
  %tb.addr = alloca ptr, align 8
  %buffersize.addr = alloca i64, align 8
  %tpm_pt = alloca ptr, align 8
  store ptr %tb, ptr %tb.addr, align 8
  store i64 %buffersize, ptr %buffersize.addr, align 8
  %0 = load ptr, ptr %tb.addr, align 8
  %call = call ptr @TPM_PASSTHROUGH(ptr noundef %0)
  store ptr %call, ptr %tpm_pt, align 8
  %1 = load i64, ptr %buffersize.addr, align 8
  %tobool = icmp ne i64 %1, 0
  br i1 %tobool, label %land.lhs.true, label %if.end

land.lhs.true:                                    ; preds = %entry
  %2 = load i64, ptr %buffersize.addr, align 8
  %3 = load ptr, ptr %tpm_pt, align 8
  %tpm_buffersize = getelementptr inbounds %struct.TPMPassthruState, ptr %3, i32 0, i32 8
  %4 = load i64, ptr %tpm_buffersize, align 8
  %cmp = icmp ult i64 %2, %4
  br i1 %cmp, label %if.then, label %if.end

if.then:                                          ; preds = %land.lhs.true
  %5 = load i64, ptr %buffersize.addr, align 8
  %6 = load ptr, ptr %tpm_pt, align 8
  %tpm_buffersize1 = getelementptr inbounds %struct.TPMPassthruState, ptr %6, i32 0, i32 8
  %7 = load i64, ptr %tpm_buffersize1, align 8
  call void (ptr, ...) @error_report(ptr noundef @.str.22, i64 noundef %5, i64 noundef %7)
  store i32 -1, ptr %retval, align 4
  br label %return

if.end:                                           ; preds = %land.lhs.true, %entry
  store i32 0, ptr %retval, align 4
  br label %return

return:                                           ; preds = %if.end, %if.then
  %8 = load i32, ptr %retval, align 4
  ret i32 %8
}