; Function Attrs: nounwind sspstrong uwtable
define internal range(i32 -1, 1) i32 @tpm_passthrough_startup_tpm(ptr noundef %tb, i64 noundef %buffersize) #0 {
entry:
  %call.i = tail call ptr @object_dynamic_cast_assert(ptr noundef %tb, ptr noundef nonnull @.str, ptr noundef nonnull @.str.2, i32 noundef 38, ptr noundef nonnull @__func__.TPM_PASSTHROUGH) #11
  %tobool.not = icmp eq i64 %buffersize, 0
  br i1 %tobool.not, label %return, label %land.lhs.true

land.lhs.true:                                    ; preds = %entry
  %tpm_buffersize = getelementptr inbounds nuw i8, ptr %call.i, i64 120
  %0 = load i64, ptr %tpm_buffersize, align 8
  %cmp = icmp ult i64 %buffersize, %0
  br i1 %cmp, label %if.then, label %return

if.then:                                          ; preds = %land.lhs.true
  tail call void (ptr, ...) @error_report(ptr noundef nonnull @.str.22, i64 noundef %buffersize, i64 noundef %0) #11
  br label %return

return:                                           ; preds = %entry, %land.lhs.true, %if.then
  %retval.0 = phi i32 [ -1, %if.then ], [ 0, %land.lhs.true ], [ 0, %entry ]
  ret i32 %retval.0
}